target datalayout = "e-m:e-p270:32:32-p271:32:32-p272:64:64-i64:64-i128:128-f80:128-n8:16:32:64-S128"
target triple = "x86_64-pc-linux-gnu"

%"class.std::__cxx11::basic_string" = type { %"struct.std::__cxx11::basic_string<char>::_Alloc_hider", i64, %union.anon }
%"struct.std::__cxx11::basic_string<char>::_Alloc_hider" = type { ptr }
%union.anon = type { i64, [8 x i8] }
%"class.std::vector.5" = type { %"struct.std::_Vector_base.6" }
%"struct.std::_Vector_base.6" = type { %"struct.std::_Vector_base<float, std::allocator<float>>::_Vector_impl" }
%"struct.std::_Vector_base<float, std::allocator<float>>::_Vector_impl" = type { %"struct.std::_Vector_base<float, std::allocator<float>>::_Vector_impl_data" }
%"struct.std::_Vector_base<float, std::allocator<float>>::_Vector_impl_data" = type { ptr, ptr, ptr }
%"struct.faiss::Index" = type <{ ptr, i32, [4 x i8], i64, i8, i8, [2 x i8], i32, float, [4 x i8] }>
%"struct.faiss::Index.base" = type <{ ptr, i32, [4 x i8], i64, i8, i8, [2 x i8], i32, float }>
%"struct.faiss::IndexIVFInterface" = type { ptr, %"struct.faiss::Level1Quantizer", i64, i64 }
%"struct.faiss::Level1Quantizer" = type { ptr, i64, i8, i8, %"struct.faiss::ClusteringParameters", ptr }
%"struct.faiss::ClusteringParameters" = type { i32, i32, i8, i8, i8, i8, i8, i32, i32, i32, i64 }
%"struct.faiss::DirectMap" = type { i32, %"class.std::vector", %"class.std::unordered_map" }
%"class.std::vector" = type { %"struct.std::_Vector_base" }
%"struct.std::_Vector_base" = type { %"struct.std::_Vector_base<long, std::allocator<long>>::_Vector_impl" }
%"struct.std::_Vector_base<long, std::allocator<long>>::_Vector_impl" = type { %"struct.std::_Vector_base<long, std::allocator<long>>::_Vector_impl_data" }
%"struct.std::_Vector_base<long, std::allocator<long>>::_Vector_impl_data" = type { ptr, ptr, ptr }
%"class.std::unordered_map" = type { %"class.std::_Hashtable" }
%"class.std::_Hashtable" = type { ptr, i64, %"struct.std::__detail::_Hash_node_base", i64, %"struct.std::__detail::_Prime_rehash_policy", ptr }
%"struct.std::__detail::_Hash_node_base" = type { ptr }
%"struct.std::__detail::_Prime_rehash_policy" = type { float, i64 }
%"struct.faiss::IndexIVFSpectralHash" = type { %"struct.faiss::IndexIVF.base", ptr, i8, i32, float, i32, %"class.std::vector.5" }
%"struct.faiss::IndexIVF.base" = type <{ %"struct.faiss::Index.base", [4 x i8], %"struct.faiss::IndexIVFInterface", ptr, i8, [7 x i8], i64, i32, i32, %"struct.faiss::DirectMap", i8 }>
%"struct.faiss::VectorTransform" = type <{ ptr, i32, i32, i8, [7 x i8] }>

@.str = private unnamed_addr constant [19 x i8] c"Error: '%s' failed\00", align 1
@.str.2 = private unnamed_addr constant [120 x i8] c"generated/home/dtcxzyw/WorkSpace/Projects/compilers/llvm-opt-benchmark/bench/faiss/faiss/faiss/IndexIVFSpectralHash.cpp\00", align 1
@_ZTIN5faiss14FaissExceptionE = external constant ptr
@.str.10 = private unnamed_addr constant [21 x i8] c"vt_in->d_out == nbit\00", align 1
@__PRETTY_FUNCTION__._ZN5faiss20IndexIVFSpectralHash10replace_vtEPNS_15VectorTransformEb = private unnamed_addr constant [70 x i8] c"void faiss::IndexIVFSpectralHash::replace_vt(VectorTransform *, bool)\00", align 1
@.str.11 = private unnamed_addr constant [17 x i8] c"vt_in->d_in == d\00", align 1

; Function Attrs: mustprogress uwtable
define void @_ZN5faiss20IndexIVFSpectralHash10replace_vtEPNS_15VectorTransformEb(ptr noundef nonnull align 8 dereferenceable(312) %0, ptr noundef %1, i1 noundef zeroext %2) #2 align 2 personality ptr @__gxx_personality_v0 {
  %4 = alloca ptr, align 8
  %5 = alloca ptr, align 8
  %6 = alloca i8, align 1
  %7 = alloca %"class.std::__cxx11::basic_string", align 8
  %8 = alloca i32, align 4
  %9 = alloca ptr, align 8
  %10 = alloca i32, align 4
  %11 = alloca %"class.std::__cxx11::basic_string", align 8
  %12 = alloca i32, align 4
  store ptr %0, ptr %4, align 8
  store ptr %1, ptr %5, align 8
  %13 = zext i1 %2 to i8
  store i8 %13, ptr %6, align 1
  %14 = load ptr, ptr %4, align 8
  br label %15

15:                                               ; preds = %3
  %16 = load ptr, ptr %5, align 8
  %17 = getelementptr inbounds %"struct.faiss::VectorTransform", ptr %16, i32 0, i32 2
  %18 = load i32, ptr %17, align 4
  %19 = getelementptr inbounds %"struct.faiss::IndexIVFSpectralHash", ptr %14, i32 0, i32 3
  %20 = load i32, ptr %19, align 4
  %21 = icmp eq i32 %18, %20
  br i1 %21, label %45, label %22

22:                                               ; preds = %15
  br label %23

23:                                               ; preds = %22
  call void @_ZNSt7__cxx1112basic_stringIcSt11char_traitsIcESaIcEEC1Ev(ptr noundef nonnull align 8 dereferenceable(32) %7) #9
  %24 = call i32 (ptr, i64, ptr, ...) @snprintf(ptr noundef null, i64 noundef 0, ptr noundef @.str, ptr noundef @.str.10) #9
  store i32 %24, ptr %8, align 4
  %25 = load i32, ptr %8, align 4
  %26 = add nsw i32 %25, 1
  %27 = sext i32 %26 to i64
  invoke void @_ZNSt7__cxx1112basic_stringIcSt11char_traitsIcESaIcEE6resizeEm(ptr noundef nonnull align 8 dereferenceable(32) %7, i64 noundef %27)
          to label %28 unwind label %35

28:                                               ; preds = %23
  %29 = invoke noundef nonnull align 1 dereferenceable(1) ptr @_ZNSt7__cxx1112basic_stringIcSt11char_traitsIcESaIcEEixEm(ptr noundef nonnull align 8 dereferenceable(32) %7, i64 noundef 0)
          to label %30 unwind label %35

30:                                               ; preds = %28
  %31 = call noundef i64 @_ZNKSt7__cxx1112basic_stringIcSt11char_traitsIcESaIcEE4sizeEv(ptr noundef nonnull align 8 dereferenceable(32) %7) #9
  %32 = call i32 (ptr, i64, ptr, ...) @snprintf(ptr noundef %29, i64 noundef %31, ptr noundef @.str, ptr noundef @.str.10) #9
  %33 = call ptr @__cxa_allocate_exception(i64 40) #9
  invoke void @_ZN5faiss14FaissExceptionC1ERKNSt7__cxx1112basic_stringIcSt11char_traitsIcESaIcEEEPKcSA_i(ptr noundef nonnull align 8 dereferenceable(40) %33, ptr noundef nonnull align 8 dereferenceable(32) %7, ptr noundef @__PRETTY_FUNCTION__._ZN5faiss20IndexIVFSpectralHash10replace_vtEPNS_15VectorTransformEb, ptr noundef @.str.2, i32 noundef 312)
          to label %34 unwind label %39

34:                                               ; preds = %30
  invoke void @__cxa_throw(ptr %33, ptr @_ZTIN5faiss14FaissExceptionE, ptr @_ZN5faiss14FaissExceptionD2Ev) #16
          to label %130 unwind label %35

35:                                               ; preds = %34, %28, %23
  %36 = landingpad { ptr, i32 }
          cleanup
  %37 = extractvalue { ptr, i32 } %36, 0
  store ptr %37, ptr %9, align 8
  %38 = extractvalue { ptr, i32 } %36, 1
  store i32 %38, ptr %10, align 4
  br label %43

39:                                               ; preds = %30
  %40 = landingpad { ptr, i32 }
          cleanup
  %41 = extractvalue { ptr, i32 } %40, 0
  store ptr %41, ptr %9, align 8
  %42 = extractvalue { ptr, i32 } %40, 1
  store i32 %42, ptr %10, align 4
  call void @__cxa_free_exception(ptr %33) #9
  br label %43

43:                                               ; preds = %39, %35
  call void @_ZNSt7__cxx1112basic_stringIcSt11char_traitsIcESaIcEED1Ev(ptr noundef nonnull align 8 dereferenceable(32) %7) #9
  br label %125

44:                                               ; No predecessors!
  br label %45

45:                                               ; preds = %44, %15
  br label %46

46:                                               ; preds = %45
  br label %47

47:                                               ; preds = %46
  %48 = load ptr, ptr %5, align 8
  %49 = getelementptr inbounds %"struct.faiss::VectorTransform", ptr %48, i32 0, i32 1
  %50 = load i32, ptr %49, align 8
  %51 = getelementptr inbounds %"struct.faiss::Index", ptr %14, i32 0, i32 1
  %52 = load i32, ptr %51, align 8
  %53 = icmp eq i32 %50, %52
  br i1 %53, label %77, label %54

54:                                               ; preds = %47
  br label %55

55:                                               ; preds = %54
  call void @_ZNSt7__cxx1112basic_stringIcSt11char_traitsIcESaIcEEC1Ev(ptr noundef nonnull align 8 dereferenceable(32) %11) #9
  %56 = call i32 (ptr, i64, ptr, ...) @snprintf(ptr noundef null, i64 noundef 0, ptr noundef @.str, ptr noundef @.str.11) #9
  store i32 %56, ptr %12, align 4
  %57 = load i32, ptr %12, align 4
  %58 = add nsw i32 %57, 1
  %59 = sext i32 %58 to i64
  invoke void @_ZNSt7__cxx1112basic_stringIcSt11char_traitsIcESaIcEE6resizeEm(ptr noundef nonnull align 8 dereferenceable(32) %11, i64 noundef %59)
          to label %60 unwind label %67

60:                                               ; preds = %55
  %61 = invoke noundef nonnull align 1 dereferenceable(1) ptr @_ZNSt7__cxx1112basic_stringIcSt11char_traitsIcESaIcEEixEm(ptr noundef nonnull align 8 dereferenceable(32) %11, i64 noundef 0)
          to label %62 unwind label %67

62:                                               ; preds = %60
  %63 = call noundef i64 @_ZNKSt7__cxx1112basic_stringIcSt11char_traitsIcESaIcEE4sizeEv(ptr noundef nonnull align 8 dereferenceable(32) %11) #9
  %64 = call i32 (ptr, i64, ptr, ...) @snprintf(ptr noundef %61, i64 noundef %63, ptr noundef @.str, ptr noundef @.str.11) #9
  %65 = call ptr @__cxa_allocate_exception(i64 40) #9
  invoke void @_ZN5faiss14FaissExceptionC1ERKNSt7__cxx1112basic_stringIcSt11char_traitsIcESaIcEEEPKcSA_i(ptr noundef nonnull align 8 dereferenceable(40) %65, ptr noundef nonnull align 8 dereferenceable(32) %11, ptr noundef @__PRETTY_FUNCTION__._ZN5faiss20IndexIVFSpectralHash10replace_vtEPNS_15VectorTransformEb, ptr noundef @.str.2, i32 noundef 313)
          to label %66 unwind label %71

66:                                               ; preds = %62
  invoke void @__cxa_throw(ptr %65, ptr @_ZTIN5faiss14FaissExceptionE, ptr @_ZN5faiss14FaissExceptionD2Ev) #16
          to label %130 unwind label %67

67:                                               ; preds = %66, %60, %55
  %68 = landingpad { ptr, i32 }
          cleanup
  %69 = extractvalue { ptr, i32 } %68, 0
  store ptr %69, ptr %9, align 8
  %70 = extractvalue { ptr, i32 } %68, 1
  store i32 %70, ptr %10, align 4
  br label %75

71:                                               ; preds = %62
  %72 = landingpad { ptr, i32 }
          cleanup
  %73 = extractvalue { ptr, i32 } %72, 0
  store ptr %73, ptr %9, align 8
  %74 = extractvalue { ptr, i32 } %72, 1
  store i32 %74, ptr %10, align 4
  call void @__cxa_free_exception(ptr %65) #9
  br label %75

75:                                               ; preds = %71, %67
  call void @_ZNSt7__cxx1112basic_stringIcSt11char_traitsIcESaIcEED1Ev(ptr noundef nonnull align 8 dereferenceable(32) %11) #9
  br label %125

76:                                               ; No predecessors!
  br label %77

77:                                               ; preds = %76, %47
  br label %78

78:                                               ; preds = %77
  %79 = getelementptr inbounds %"struct.faiss::IndexIVFSpectralHash", ptr %14, i32 0, i32 2
  %80 = load i8, ptr %79, align 8
  %81 = trunc i8 %80 to i1
  br i1 %81, label %82, label %91

82:                                               ; preds = %78
  %83 = getelementptr inbounds %"struct.faiss::IndexIVFSpectralHash", ptr %14, i32 0, i32 1
  %84 = load ptr, ptr %83, align 8
  %85 = icmp eq ptr %84, null
  br i1 %85, label %90, label %86

86:                                               ; preds = %82
  %87 = load ptr, ptr %84, align 8
  %88 = getelementptr inbounds ptr, ptr %87, i64 5
  %89 = load ptr, ptr %88, align 8
  call void %89(ptr noundef nonnull align 8 dereferenceable(17) %84) #9
  br label %90

90:                                               ; preds = %86, %82
  br label %91

91:                                               ; preds = %90, %78
  %92 = load ptr, ptr %5, align 8
  %93 = getelementptr inbounds %"struct.faiss::IndexIVFSpectralHash", ptr %14, i32 0, i32 1
  store ptr %92, ptr %93, align 8
  %94 = getelementptr inbounds %"struct.faiss::IndexIVFSpectralHash", ptr %14, i32 0, i32 5
  store i32 0, ptr %94, align 4
  %95 = getelementptr inbounds i8, ptr %14, i64 48
  %96 = getelementptr inbounds %"struct.faiss::Level1Quantizer", ptr %95, i32 0, i32 0
  %97 = load ptr, ptr %96, align 8
  %98 = getelementptr inbounds %"struct.faiss::Index", ptr %97, i32 0, i32 5
  %99 = load i8, ptr %98, align 1
  %100 = trunc i8 %99 to i1
  br i1 %100, label %101, label %117

101:                                              ; preds = %91
  %102 = getelementptr inbounds i8, ptr %14, i64 48
  %103 = getelementptr inbounds %"struct.faiss::Level1Quantizer", ptr %102, i32 0, i32 0
  %104 = load ptr, ptr %103, align 8
  %105 = getelementptr inbounds %"struct.faiss::Index", ptr %104, i32 0, i32 3
  %106 = load i64, ptr %105, align 8
  %107 = getelementptr inbounds i8, ptr %14, i64 48
  %108 = getelementptr inbounds %"struct.faiss::Level1Quantizer", ptr %107, i32 0, i32 1
  %109 = load i64, ptr %108, align 8
  %110 = icmp eq i64 %106, %109
  br i1 %110, label %111, label %117

111:                                              ; preds = %101
  %112 = getelementptr inbounds %"struct.faiss::IndexIVFSpectralHash", ptr %14, i32 0, i32 1
  %113 = load ptr, ptr %112, align 8
  %114 = getelementptr inbounds %"struct.faiss::VectorTransform", ptr %113, i32 0, i32 3
  %115 = load i8, ptr %114, align 8
  %116 = trunc i8 %115 to i1
  br label %117

117:                                              ; preds = %111, %101, %91
  %118 = phi i1 [ false, %101 ], [ false, %91 ], [ %116, %111 ]
  %119 = getelementptr inbounds %"struct.faiss::Index", ptr %14, i32 0, i32 5
  %120 = zext i1 %118 to i8
  store i8 %120, ptr %119, align 1
  %121 = load i8, ptr %6, align 1
  %122 = trunc i8 %121 to i1
  %123 = getelementptr inbounds %"struct.faiss::IndexIVFSpectralHash", ptr %14, i32 0, i32 2
  %124 = zext i1 %122 to i8
  store i8 %124, ptr %123, align 8
  ret void

125:                                              ; preds = %75, %43
  %126 = load ptr, ptr %9, align 8
  %127 = load i32, ptr %10, align 4
  %128 = insertvalue { ptr, i32 } poison, ptr %126, 0
  %129 = insertvalue { ptr, i32 } %128, i32 %127, 1
  resume { ptr, i32 } %129

130:                                              ; preds = %66, %34
  unreachable
}