; Function Attrs: mustprogress uwtable
define void @_ZN5faiss20IndexIVFSpectralHash10replace_vtEPNS_15VectorTransformEb(ptr nocapture noundef nonnull align 8 dereferenceable(312) %0, ptr noundef %1, i1 noundef zeroext %2) local_unnamed_addr #2 align 2 personality ptr @__gxx_personality_v0 {
  %4 = alloca %"class.std::__cxx11::basic_string", align 8
  %5 = alloca %"class.std::__cxx11::basic_string", align 8
  %6 = getelementptr inbounds i8, ptr %1, i64 12
  %7 = load i32, ptr %6, align 4
  %8 = getelementptr inbounds i8, ptr %0, i64 276
  %9 = load i32, ptr %8, align 4
  %10 = icmp eq i32 %7, %9
  br i1 %10, label %26, label %11

11:                                               ; preds = %3
  call void @_ZNSt7__cxx1112basic_stringIcSt11char_traitsIcESaIcEEC1Ev(ptr noundef nonnull align 8 dereferenceable(32) %4) #10
  %12 = call i32 (ptr, i64, ptr, ...) @snprintf(ptr noundef null, i64 noundef 0, ptr noundef nonnull @.str, ptr noundef nonnull @.str.10) #10
  %13 = add nsw i32 %12, 1
  %14 = sext i32 %13 to i64
  invoke void @_ZNSt7__cxx1112basic_stringIcSt11char_traitsIcESaIcEE6resizeEm(ptr noundef nonnull align 8 dereferenceable(32) %4, i64 noundef %14)
          to label %15 unwind label %22

15:                                               ; preds = %11
  %16 = invoke noundef nonnull align 1 dereferenceable(1) ptr @_ZNSt7__cxx1112basic_stringIcSt11char_traitsIcESaIcEEixEm(ptr noundef nonnull align 8 dereferenceable(32) %4, i64 noundef 0)
          to label %17 unwind label %22

17:                                               ; preds = %15
  %18 = call noundef i64 @_ZNKSt7__cxx1112basic_stringIcSt11char_traitsIcESaIcEE4sizeEv(ptr noundef nonnull align 8 dereferenceable(32) %4) #10
  %19 = call i32 (ptr, i64, ptr, ...) @snprintf(ptr noundef nonnull %16, i64 noundef %18, ptr noundef nonnull @.str, ptr noundef nonnull @.str.10) #10
  %20 = call ptr @__cxa_allocate_exception(i64 40) #10
  invoke void @_ZN5faiss14FaissExceptionC1ERKNSt7__cxx1112basic_stringIcSt11char_traitsIcESaIcEEEPKcSA_i(ptr noundef nonnull align 8 dereferenceable(40) %20, ptr noundef nonnull align 8 dereferenceable(32) %4, ptr noundef nonnull @__PRETTY_FUNCTION__._ZN5faiss20IndexIVFSpectralHash10replace_vtEPNS_15VectorTransformEb, ptr noundef nonnull @.str.2, i32 noundef 312)
          to label %21 unwind label %24

21:                                               ; preds = %17
  invoke void @__cxa_throw(ptr nonnull %20, ptr nonnull @_ZTIN5faiss14FaissExceptionE, ptr nonnull @_ZN5faiss14FaissExceptionD2Ev) #23
          to label %82 unwind label %22

22:                                               ; preds = %21, %15, %11
  %23 = landingpad { ptr, i32 }
          cleanup
  br label %81

24:                                               ; preds = %17
  %25 = landingpad { ptr, i32 }
          cleanup
  call void @__cxa_free_exception(ptr %20) #10
  br label %81

26:                                               ; preds = %3
  %27 = getelementptr inbounds i8, ptr %1, i64 8
  %28 = load i32, ptr %27, align 8
  %29 = getelementptr inbounds i8, ptr %0, i64 8
  %30 = load i32, ptr %29, align 8
  %31 = icmp eq i32 %28, %30
  br i1 %31, label %47, label %32

32:                                               ; preds = %26
  call void @_ZNSt7__cxx1112basic_stringIcSt11char_traitsIcESaIcEEC1Ev(ptr noundef nonnull align 8 dereferenceable(32) %5) #10
  %33 = call i32 (ptr, i64, ptr, ...) @snprintf(ptr noundef null, i64 noundef 0, ptr noundef nonnull @.str, ptr noundef nonnull @.str.11) #10
  %34 = add nsw i32 %33, 1
  %35 = sext i32 %34 to i64
  invoke void @_ZNSt7__cxx1112basic_stringIcSt11char_traitsIcESaIcEE6resizeEm(ptr noundef nonnull align 8 dereferenceable(32) %5, i64 noundef %35)
          to label %36 unwind label %43

36:                                               ; preds = %32
  %37 = invoke noundef nonnull align 1 dereferenceable(1) ptr @_ZNSt7__cxx1112basic_stringIcSt11char_traitsIcESaIcEEixEm(ptr noundef nonnull align 8 dereferenceable(32) %5, i64 noundef 0)
          to label %38 unwind label %43

38:                                               ; preds = %36
  %39 = call noundef i64 @_ZNKSt7__cxx1112basic_stringIcSt11char_traitsIcESaIcEE4sizeEv(ptr noundef nonnull align 8 dereferenceable(32) %5) #10
  %40 = call i32 (ptr, i64, ptr, ...) @snprintf(ptr noundef nonnull %37, i64 noundef %39, ptr noundef nonnull @.str, ptr noundef nonnull @.str.11) #10
  %41 = call ptr @__cxa_allocate_exception(i64 40) #10
  invoke void @_ZN5faiss14FaissExceptionC1ERKNSt7__cxx1112basic_stringIcSt11char_traitsIcESaIcEEEPKcSA_i(ptr noundef nonnull align 8 dereferenceable(40) %41, ptr noundef nonnull align 8 dereferenceable(32) %5, ptr noundef nonnull @__PRETTY_FUNCTION__._ZN5faiss20IndexIVFSpectralHash10replace_vtEPNS_15VectorTransformEb, ptr noundef nonnull @.str.2, i32 noundef 313)
          to label %42 unwind label %45

42:                                               ; preds = %38
  invoke void @__cxa_throw(ptr nonnull %41, ptr nonnull @_ZTIN5faiss14FaissExceptionE, ptr nonnull @_ZN5faiss14FaissExceptionD2Ev) #23
          to label %82 unwind label %43

43:                                               ; preds = %42, %36, %32
  %44 = landingpad { ptr, i32 }
          cleanup
  br label %81

45:                                               ; preds = %38
  %46 = landingpad { ptr, i32 }
          cleanup
  call void @__cxa_free_exception(ptr %41) #10
  br label %81

47:                                               ; preds = %26
  %48 = getelementptr inbounds i8, ptr %0, i64 272
  %49 = load i8, ptr %48, align 8
  %50 = and i8 %49, 1
  %.not = icmp eq i8 %50, 0
  br i1 %.not, label %59, label %51

51:                                               ; preds = %47
  %52 = getelementptr inbounds i8, ptr %0, i64 264
  %53 = load ptr, ptr %52, align 8
  %54 = icmp eq ptr %53, null
  br i1 %54, label %59, label %55

55:                                               ; preds = %51
  %56 = load ptr, ptr %53, align 8
  %57 = getelementptr inbounds i8, ptr %56, i64 40
  %58 = load ptr, ptr %57, align 8
  tail call void %58(ptr noundef nonnull align 8 dereferenceable(17) %53) #10
  br label %59

59:                                               ; preds = %51, %55, %47
  %60 = getelementptr inbounds i8, ptr %0, i64 264
  store ptr %1, ptr %60, align 8
  %61 = getelementptr inbounds i8, ptr %0, i64 284
  store i32 0, ptr %61, align 4
  %62 = getelementptr inbounds i8, ptr %0, i64 48
  %63 = load ptr, ptr %62, align 8
  %64 = getelementptr inbounds i8, ptr %63, i64 25
  %65 = load i8, ptr %64, align 1
  %66 = and i8 %65, 1
  %.not16 = icmp eq i8 %66, 0
  br i1 %.not16, label %77, label %67

67:                                               ; preds = %59
  %68 = getelementptr inbounds i8, ptr %63, i64 16
  %69 = load i64, ptr %68, align 8
  %70 = getelementptr inbounds i8, ptr %0, i64 56
  %71 = load i64, ptr %70, align 8
  %72 = icmp eq i64 %69, %71
  br i1 %72, label %73, label %77

73:                                               ; preds = %67
  %74 = getelementptr inbounds i8, ptr %1, i64 16
  %75 = load i8, ptr %74, align 8
  %76 = and i8 %75, 1
  br label %77

77:                                               ; preds = %73, %67, %59
  %78 = phi i8 [ 0, %67 ], [ 0, %59 ], [ %76, %73 ]
  %79 = zext i1 %2 to i8
  %80 = getelementptr inbounds i8, ptr %0, i64 25
  store i8 %78, ptr %80, align 1
  store i8 %79, ptr %48, align 8
  ret void

81:                                               ; preds = %43, %45, %22, %24
  %.sink = phi ptr [ %4, %24 ], [ %4, %22 ], [ %5, %45 ], [ %5, %43 ]
  %.pn13.pn = phi { ptr, i32 } [ %25, %24 ], [ %23, %22 ], [ %46, %45 ], [ %44, %43 ]
  call void @_ZNSt7__cxx1112basic_stringIcSt11char_traitsIcESaIcEED1Ev(ptr noundef nonnull align 8 dereferenceable(32) %.sink) #10
  resume { ptr, i32 } %.pn13.pn

82:                                               ; preds = %42, %21
  unreachable
}